; Function Attrs: nounwind uwtable
define hidden void @Curl_cookie_cleanup(ptr noundef %0) local_unnamed_addr #0 {
  %.not = icmp eq ptr %0, null
  br i1 %.not, label %4, label %2

2:                                                ; preds = %1
  tail call void @Curl_cookie_clearall(ptr noundef nonnull %0)
  %3 = load ptr, ptr @Curl_cfree, align 8, !tbaa !84
  tail call void %3(ptr noundef nonnull %0) #12
  br label %4

4:                                                ; preds = %2, %1
  ret void
}